target datalayout = "e-m:e-p270:32:32-p271:32:32-p272:64:64-i64:64-i128:128-f80:128-n8:16:32:64-S128"
target triple = "x86_64-pc-linux-gnu"

; Function Attrs: nounwind uwtable
define internal i32 @compare_index(i32 noundef %0, i32 noundef %1, i32 noundef %2, ptr noundef %3, ptr noundef %4) #0 {
  %6 = alloca i32, align 4
  %7 = alloca i32, align 4
  %8 = alloca i32, align 4
  %9 = alloca i32, align 4
  %10 = alloca ptr, align 8
  %11 = alloca ptr, align 8
  %12 = alloca i32, align 4
  %13 = alloca i32, align 4
  %14 = alloca i32, align 4
  %15 = alloca i32, align 4
  %16 = alloca i32, align 4
  %17 = alloca i32, align 4
  %18 = alloca i32, align 4
  %19 = alloca i32, align 4
  %20 = alloca i32, align 4
  store i32 %0, ptr %7, align 4
  store i32 %1, ptr %8, align 4
  store i32 %2, ptr %9, align 4
  store ptr %3, ptr %10, align 8
  store ptr %4, ptr %11, align 8
  store i32 0, ptr %12, align 4
  br label %21

21:                                               ; preds = %162, %5
  %22 = load i32, ptr %12, align 4
  %23 = load i32, ptr %9, align 4
  %24 = icmp slt i32 %22, %23
  br i1 %24, label %25, label %165

25:                                               ; preds = %21
  %26 = load ptr, ptr %11, align 8
  %27 = load i32, ptr %7, align 4
  %28 = sext i32 %27 to i64
  %29 = getelementptr inbounds i32, ptr %26, i64 %28
  %30 = load i32, ptr %29, align 4
  %31 = lshr i32 %30, 8
  store i32 %31, ptr %14, align 4
  %32 = load ptr, ptr %11, align 8
  %33 = load i32, ptr %7, align 4
  %34 = sext i32 %33 to i64
  %35 = getelementptr inbounds i32, ptr %32, i64 %34
  %36 = load i32, ptr %35, align 4
  %37 = and i32 %36, 255
  store i32 %37, ptr %15, align 4
  %38 = load ptr, ptr %11, align 8
  %39 = load i32, ptr %8, align 4
  %40 = sext i32 %39 to i64
  %41 = getelementptr inbounds i32, ptr %38, i64 %40
  %42 = load i32, ptr %41, align 4
  %43 = lshr i32 %42, 8
  store i32 %43, ptr %16, align 4
  %44 = load ptr, ptr %11, align 8
  %45 = load i32, ptr %8, align 4
  %46 = sext i32 %45 to i64
  %47 = getelementptr inbounds i32, ptr %44, i64 %46
  %48 = load i32, ptr %47, align 4
  %49 = and i32 %48, 255
  store i32 %49, ptr %17, align 4
  %50 = load i32, ptr %14, align 4
  %51 = icmp sgt i32 %50, 1
  br i1 %51, label %52, label %119

52:                                               ; preds = %25
  %53 = load i32, ptr %16, align 4
  %54 = icmp sgt i32 %53, 1
  br i1 %54, label %55, label %119

55:                                               ; preds = %52
  %56 = load i32, ptr %15, align 4
  %57 = load i32, ptr %17, align 4
  %58 = icmp eq i32 %56, %57
  br i1 %58, label %59, label %119

59:                                               ; preds = %55
  store i32 0, ptr %18, align 4
  store i32 0, ptr %13, align 4
  br label %60

60:                                               ; preds = %94, %59
  %61 = load i32, ptr %13, align 4
  %62 = load i32, ptr %15, align 4
  %63 = icmp slt i32 %61, %62
  br i1 %63, label %64, label %97

64:                                               ; preds = %60
  %65 = load ptr, ptr %10, align 8
  %66 = load i32, ptr %7, align 4
  %67 = load i32, ptr %13, align 4
  %68 = add nsw i32 %66, %67
  %69 = load i32, ptr %9, align 4
  %70 = srem i32 %68, %69
  %71 = sext i32 %70 to i64
  %72 = getelementptr inbounds i32, ptr %65, i64 %71
  %73 = load i32, ptr %72, align 4
  store i32 %73, ptr %19, align 4
  %74 = load ptr, ptr %10, align 8
  %75 = load i32, ptr %8, align 4
  %76 = load i32, ptr %13, align 4
  %77 = add nsw i32 %75, %76
  %78 = load i32, ptr %9, align 4
  %79 = srem i32 %77, %78
  %80 = sext i32 %79 to i64
  %81 = getelementptr inbounds i32, ptr %74, i64 %80
  %82 = load i32, ptr %81, align 4
  store i32 %82, ptr %20, align 4
  %83 = load i32, ptr %19, align 4
  %84 = load i32, ptr %20, align 4
  %85 = icmp ult i32 %83, %84
  br i1 %85, label %86, label %87

86:                                               ; preds = %64
  store i32 -1, ptr %6, align 4
  br label %166

87:                                               ; preds = %64
  %88 = load i32, ptr %19, align 4
  %89 = load i32, ptr %20, align 4
  %90 = icmp ugt i32 %88, %89
  br i1 %90, label %91, label %92

91:                                               ; preds = %87
  store i32 1, ptr %6, align 4
  br label %166

92:                                               ; preds = %87
  br label %93

93:                                               ; preds = %92
  br label %94

94:                                               ; preds = %93
  %95 = load i32, ptr %13, align 4
  %96 = add nsw i32 %95, 1
  store i32 %96, ptr %13, align 4
  br label %60, !llvm.loop !6

97:                                               ; preds = %60
  %98 = load i32, ptr %14, align 4
  store i32 %98, ptr %18, align 4
  %99 = load i32, ptr %16, align 4
  %100 = load i32, ptr %14, align 4
  %101 = icmp slt i32 %99, %100
  br i1 %101, label %102, label %104

102:                                              ; preds = %97
  %103 = load i32, ptr %16, align 4
  store i32 %103, ptr %18, align 4
  br label %104

104:                                              ; preds = %102, %97
  %105 = load i32, ptr %7, align 4
  %106 = load i32, ptr %18, align 4
  %107 = add nsw i32 %105, %106
  %108 = load i32, ptr %9, align 4
  %109 = srem i32 %107, %108
  store i32 %109, ptr %7, align 4
  %110 = load i32, ptr %8, align 4
  %111 = load i32, ptr %18, align 4
  %112 = add nsw i32 %110, %111
  %113 = load i32, ptr %9, align 4
  %114 = srem i32 %112, %113
  store i32 %114, ptr %8, align 4
  %115 = load i32, ptr %18, align 4
  %116 = sub nsw i32 %115, 1
  %117 = load i32, ptr %12, align 4
  %118 = add nsw i32 %117, %116
  store i32 %118, ptr %12, align 4
  br label %161

119:                                              ; preds = %55, %52, %25
  %120 = load ptr, ptr %10, align 8
  %121 = load i32, ptr %7, align 4
  %122 = sext i32 %121 to i64
  %123 = getelementptr inbounds i32, ptr %120, i64 %122
  %124 = load i32, ptr %123, align 4
  %125 = load ptr, ptr %10, align 8
  %126 = load i32, ptr %8, align 4
  %127 = sext i32 %126 to i64
  %128 = getelementptr inbounds i32, ptr %125, i64 %127
  %129 = load i32, ptr %128, align 4
  %130 = icmp ult i32 %124, %129
  br i1 %130, label %131, label %132

131:                                              ; preds = %119
  store i32 -1, ptr %6, align 4
  br label %166

132:                                              ; preds = %119
  %133 = load ptr, ptr %10, align 8
  %134 = load i32, ptr %7, align 4
  %135 = sext i32 %134 to i64
  %136 = getelementptr inbounds i32, ptr %133, i64 %135
  %137 = load i32, ptr %136, align 4
  %138 = load ptr, ptr %10, align 8
  %139 = load i32, ptr %8, align 4
  %140 = sext i32 %139 to i64
  %141 = getelementptr inbounds i32, ptr %138, i64 %140
  %142 = load i32, ptr %141, align 4
  %143 = icmp ugt i32 %137, %142
  br i1 %143, label %144, label %145

144:                                              ; preds = %132
  store i32 1, ptr %6, align 4
  br label %166

145:                                              ; preds = %132
  br label %146

146:                                              ; preds = %145
  %147 = load i32, ptr %7, align 4
  %148 = add nsw i32 %147, 1
  store i32 %148, ptr %7, align 4
  %149 = load i32, ptr %7, align 4
  %150 = load i32, ptr %9, align 4
  %151 = icmp sge i32 %149, %150
  br i1 %151, label %152, label %153

152:                                              ; preds = %146
  store i32 0, ptr %7, align 4
  br label %153

153:                                              ; preds = %152, %146
  %154 = load i32, ptr %8, align 4
  %155 = add nsw i32 %154, 1
  store i32 %155, ptr %8, align 4
  %156 = load i32, ptr %8, align 4
  %157 = load i32, ptr %9, align 4
  %158 = icmp sge i32 %156, %157
  br i1 %158, label %159, label %160

159:                                              ; preds = %153
  store i32 0, ptr %8, align 4
  br label %160

160:                                              ; preds = %159, %153
  br label %161

161:                                              ; preds = %160, %104
  br label %162

162:                                              ; preds = %161
  %163 = load i32, ptr %12, align 4
  %164 = add nsw i32 %163, 1
  store i32 %164, ptr %12, align 4
  br label %21, !llvm.loop !7

165:                                              ; preds = %21
  store i32 0, ptr %6, align 4
  br label %166

166:                                              ; preds = %165, %144, %131, %91, %86
  %167 = load i32, ptr %6, align 4
  ret i32 %167
}

; Function Attrs: nounwind uwtable
define void @Ptngc_bwt_merge_sort_inner(ptr noundef %0, i32 noundef %1, ptr noundef %2, i32 noundef %3, i32 noundef %4, ptr noundef %5, ptr noundef %6) #0 {
  %8 = alloca ptr, align 8
  %9 = alloca i32, align 4
  %10 = alloca ptr, align 8
  %11 = alloca i32, align 4
  %12 = alloca i32, align 4
  %13 = alloca ptr, align 8
  %14 = alloca ptr, align 8
  %15 = alloca i32, align 4
  %16 = alloca i32, align 4
  %17 = alloca i32, align 4
  %18 = alloca i32, align 4
  %19 = alloca i32, align 4
  store ptr %0, ptr %8, align 8
  store i32 %1, ptr %9, align 4
  store ptr %2, ptr %10, align 8
  store i32 %3, ptr %11, align 4
  store i32 %4, ptr %12, align 4
  store ptr %5, ptr %13, align 8
  store ptr %6, ptr %14, align 8
  %20 = load i32, ptr %12, align 4
  %21 = load i32, ptr %11, align 4
  %22 = sub nsw i32 %20, %21
  %23 = icmp sgt i32 %22, 1
  br i1 %23, label %24, label %161

24:                                               ; preds = %7
  %25 = load i32, ptr %11, align 4
  %26 = load i32, ptr %12, align 4
  %27 = load i32, ptr %11, align 4
  %28 = sub nsw i32 %26, %27
  %29 = sdiv i32 %28, 2
  %30 = add nsw i32 %25, %29
  store i32 %30, ptr %15, align 4
  %31 = load ptr, ptr %8, align 8
  %32 = load i32, ptr %9, align 4
  %33 = load ptr, ptr %10, align 8
  %34 = load i32, ptr %11, align 4
  %35 = load i32, ptr %15, align 4
  %36 = load ptr, ptr %13, align 8
  %37 = load ptr, ptr %14, align 8
  call void @Ptngc_bwt_merge_sort_inner(ptr noundef %31, i32 noundef %32, ptr noundef %33, i32 noundef %34, i32 noundef %35, ptr noundef %36, ptr noundef %37)
  %38 = load ptr, ptr %8, align 8
  %39 = load i32, ptr %9, align 4
  %40 = load ptr, ptr %10, align 8
  %41 = load i32, ptr %15, align 4
  %42 = load i32, ptr %12, align 4
  %43 = load ptr, ptr %13, align 8
  %44 = load ptr, ptr %14, align 8
  call void @Ptngc_bwt_merge_sort_inner(ptr noundef %38, i32 noundef %39, ptr noundef %40, i32 noundef %41, i32 noundef %42, ptr noundef %43, ptr noundef %44)
  %45 = load ptr, ptr %8, align 8
  %46 = load i32, ptr %15, align 4
  %47 = sub nsw i32 %46, 1
  %48 = sext i32 %47 to i64
  %49 = getelementptr inbounds i32, ptr %45, i64 %48
  %50 = load i32, ptr %49, align 4
  %51 = load ptr, ptr %8, align 8
  %52 = load i32, ptr %15, align 4
  %53 = sext i32 %52 to i64
  %54 = getelementptr inbounds i32, ptr %51, i64 %53
  %55 = load i32, ptr %54, align 4
  %56 = load i32, ptr %9, align 4
  %57 = load ptr, ptr %10, align 8
  %58 = load ptr, ptr %13, align 8
  %59 = call i32 @compare_index(i32 noundef %50, i32 noundef %55, i32 noundef %56, ptr noundef %57, ptr noundef %58)
  %60 = icmp sgt i32 %59, 0
  br i1 %60, label %61, label %160

61:                                               ; preds = %24
  %62 = load i32, ptr %12, align 4
  %63 = load i32, ptr %11, align 4
  %64 = sub nsw i32 %62, %63
  store i32 %64, ptr %17, align 4
  %65 = load i32, ptr %11, align 4
  store i32 %65, ptr %18, align 4
  %66 = load i32, ptr %15, align 4
  store i32 %66, ptr %19, align 4
  store i32 0, ptr %16, align 4
  br label %67

67:                                               ; preds = %146, %61
  %68 = load i32, ptr %16, align 4
  %69 = load i32, ptr %17, align 4
  %70 = icmp slt i32 %68, %69
  br i1 %70, label %71, label %149

71:                                               ; preds = %67
  %72 = load i32, ptr %18, align 4
  %73 = load i32, ptr %15, align 4
  %74 = icmp eq i32 %72, %73
  br i1 %74, label %75, label %87

75:                                               ; preds = %71
  %76 = load ptr, ptr %8, align 8
  %77 = load i32, ptr %19, align 4
  %78 = sext i32 %77 to i64
  %79 = getelementptr inbounds i32, ptr %76, i64 %78
  %80 = load i32, ptr %79, align 4
  %81 = load ptr, ptr %14, align 8
  %82 = load i32, ptr %16, align 4
  %83 = sext i32 %82 to i64
  %84 = getelementptr inbounds i32, ptr %81, i64 %83
  store i32 %80, ptr %84, align 4
  %85 = load i32, ptr %19, align 4
  %86 = add nsw i32 %85, 1
  store i32 %86, ptr %19, align 4
  br label %145

87:                                               ; preds = %71
  %88 = load i32, ptr %19, align 4
  %89 = load i32, ptr %12, align 4
  %90 = icmp eq i32 %88, %89
  br i1 %90, label %91, label %103

91:                                               ; preds = %87
  %92 = load ptr, ptr %8, align 8
  %93 = load i32, ptr %18, align 4
  %94 = sext i32 %93 to i64
  %95 = getelementptr inbounds i32, ptr %92, i64 %94
  %96 = load i32, ptr %95, align 4
  %97 = load ptr, ptr %14, align 8
  %98 = load i32, ptr %16, align 4
  %99 = sext i32 %98 to i64
  %100 = getelementptr inbounds i32, ptr %97, i64 %99
  store i32 %96, ptr %100, align 4
  %101 = load i32, ptr %18, align 4
  %102 = add nsw i32 %101, 1
  store i32 %102, ptr %18, align 4
  br label %144

103:                                              ; preds = %87
  %104 = load ptr, ptr %8, align 8
  %105 = load i32, ptr %18, align 4
  %106 = sext i32 %105 to i64
  %107 = getelementptr inbounds i32, ptr %104, i64 %106
  %108 = load i32, ptr %107, align 4
  %109 = load ptr, ptr %8, align 8
  %110 = load i32, ptr %19, align 4
  %111 = sext i32 %110 to i64
  %112 = getelementptr inbounds i32, ptr %109, i64 %111
  %113 = load i32, ptr %112, align 4
  %114 = load i32, ptr %9, align 4
  %115 = load ptr, ptr %10, align 8
  %116 = load ptr, ptr %13, align 8
  %117 = call i32 @compare_index(i32 noundef %108, i32 noundef %113, i32 noundef %114, ptr noundef %115, ptr noundef %116)
  %118 = icmp sgt i32 %117, 0
  br i1 %118, label %119, label %131

119:                                              ; preds = %103
  %120 = load ptr, ptr %8, align 8
  %121 = load i32, ptr %19, align 4
  %122 = sext i32 %121 to i64
  %123 = getelementptr inbounds i32, ptr %120, i64 %122
  %124 = load i32, ptr %123, align 4
  %125 = load ptr, ptr %14, align 8
  %126 = load i32, ptr %16, align 4
  %127 = sext i32 %126 to i64
  %128 = getelementptr inbounds i32, ptr %125, i64 %127
  store i32 %124, ptr %128, align 4
  %129 = load i32, ptr %19, align 4
  %130 = add nsw i32 %129, 1
  store i32 %130, ptr %19, align 4
  br label %143

131:                                              ; preds = %103
  %132 = load ptr, ptr %8, align 8
  %133 = load i32, ptr %18, align 4
  %134 = sext i32 %133 to i64
  %135 = getelementptr inbounds i32, ptr %132, i64 %134
  %136 = load i32, ptr %135, align 4
  %137 = load ptr, ptr %14, align 8
  %138 = load i32, ptr %16, align 4
  %139 = sext i32 %138 to i64
  %140 = getelementptr inbounds i32, ptr %137, i64 %139
  store i32 %136, ptr %140, align 4
  %141 = load i32, ptr %18, align 4
  %142 = add nsw i32 %141, 1
  store i32 %142, ptr %18, align 4
  br label %143

143:                                              ; preds = %131, %119
  br label %144

144:                                              ; preds = %143, %91
  br label %145

145:                                              ; preds = %144, %75
  br label %146

146:                                              ; preds = %145
  %147 = load i32, ptr %16, align 4
  %148 = add nsw i32 %147, 1
  store i32 %148, ptr %16, align 4
  br label %67, !llvm.loop !4

149:                                              ; preds = %67
  %150 = load ptr, ptr %8, align 8
  %151 = load i32, ptr %11, align 4
  %152 = sext i32 %151 to i64
  %153 = getelementptr inbounds i32, ptr %150, i64 %152
  %154 = load ptr, ptr %14, align 8
  %155 = load i32, ptr %12, align 4
  %156 = load i32, ptr %11, align 4
  %157 = sub nsw i32 %155, %156
  %158 = sext i32 %157 to i64
  %159 = mul i64 %158, 4
  call void @llvm.memcpy.p0.p0.i64(ptr align 4 %153, ptr align 4 %154, i64 %159, i1 false)
  br label %160

160:                                              ; preds = %149, %24
  br label %161

161:                                              ; preds = %160, %7
  ret void
}