; Function Attrs: nofree nosync nounwind memory(argmem: readwrite) uwtable
define void @Ptngc_bwt_merge_sort_inner(ptr noundef %0, i32 noundef %1, ptr noundef %2, i32 noundef %3, i32 noundef %4, ptr noundef %5, ptr noundef %6) local_unnamed_addr #0 {
  %8 = sub nsw i32 %4, %3
  %9 = icmp sgt i32 %8, 1
  br i1 %9, label %10, label %compare_index.exit.thread

10:                                               ; preds = %7
  %11 = lshr i32 %8, 1
  %12 = add nsw i32 %11, %3
  tail call void @Ptngc_bwt_merge_sort_inner(ptr noundef %0, i32 noundef %1, ptr noundef %2, i32 noundef %3, i32 noundef %12, ptr noundef %5, ptr noundef %6)
  tail call void @Ptngc_bwt_merge_sort_inner(ptr noundef %0, i32 noundef %1, ptr noundef %2, i32 noundef %12, i32 noundef %4, ptr noundef %5, ptr noundef %6)
  %13 = icmp sgt i32 %1, 0
  br i1 %13, label %.lr.ph83.i.preheader, label %compare_index.exit.thread

.lr.ph83.i.preheader:                             ; preds = %10
  %14 = sext i32 %12 to i64
  %15 = getelementptr i32, ptr %0, i64 %14
  %16 = load i32, ptr %15, align 4
  %17 = getelementptr i8, ptr %15, i64 -4
  %18 = load i32, ptr %17, align 4
  br label %.lr.ph83.i

.lr.ph83.i:                                       ; preds = %.lr.ph83.i.preheader, %65
  %.05881.i = phi i32 [ %.1.i, %65 ], [ %18, %.lr.ph83.i.preheader ]
  %.06080.i = phi i32 [ %.161.i, %65 ], [ %16, %.lr.ph83.i.preheader ]
  %.06279.i = phi i32 [ %66, %65 ], [ 0, %.lr.ph83.i.preheader ]
  %19 = sext i32 %.05881.i to i64
  %20 = getelementptr inbounds i32, ptr %5, i64 %19
  %21 = load i32, ptr %20, align 4
  %22 = lshr i32 %21, 8
  %23 = and i32 %21, 255
  %24 = sext i32 %.06080.i to i64
  %25 = getelementptr inbounds i32, ptr %5, i64 %24
  %26 = load i32, ptr %25, align 4
  %27 = lshr i32 %26, 8
  %28 = icmp ugt i32 %21, 511
  %29 = icmp ugt i32 %26, 511
  %30 = and i32 %26, 255
  %31 = icmp eq i32 %23, %30
  %32 = and i1 %29, %31
  %or.cond75.i = select i1 %28, i1 %32, i1 false
  br i1 %or.cond75.i, label %.preheader.i, label %54

.preheader.i:                                     ; preds = %.lr.ph83.i
  %.not88.i = icmp eq i32 %23, 0
  br i1 %.not88.i, label %._crit_edge.i, label %.lr.ph.i

33:                                               ; preds = %46
  %34 = add nuw nsw i32 %.06478.i, 1
  %exitcond.not.i = icmp eq i32 %34, %23
  br i1 %exitcond.not.i, label %._crit_edge.i, label %.lr.ph.i, !llvm.loop !4

.lr.ph.i:                                         ; preds = %.preheader.i, %33
  %.06478.i = phi i32 [ %34, %33 ], [ 0, %.preheader.i ]
  %35 = add nsw i32 %.06478.i, %.05881.i
  %36 = srem i32 %35, %1
  %37 = sext i32 %36 to i64
  %38 = getelementptr inbounds i32, ptr %2, i64 %37
  %39 = load i32, ptr %38, align 4
  %40 = add nsw i32 %.06478.i, %.06080.i
  %41 = srem i32 %40, %1
  %42 = sext i32 %41 to i64
  %43 = getelementptr inbounds i32, ptr %2, i64 %42
  %44 = load i32, ptr %43, align 4
  %45 = icmp ult i32 %39, %44
  br i1 %45, label %compare_index.exit.thread, label %46

46:                                               ; preds = %.lr.ph.i
  %47 = icmp ugt i32 %39, %44
  br i1 %47, label %.lr.ph.preheader, label %33

._crit_edge.i:                                    ; preds = %33, %.preheader.i
  %spec.select.i = tail call i32 @llvm.umin.i32(i32 %27, i32 %22)
  %48 = add nsw i32 %spec.select.i, %.05881.i
  %49 = srem i32 %48, %1
  %50 = add nsw i32 %spec.select.i, %.06080.i
  %51 = srem i32 %50, %1
  %52 = add nsw i32 %.06279.i, -1
  %53 = add i32 %52, %spec.select.i
  br label %65

54:                                               ; preds = %.lr.ph83.i
  %55 = getelementptr inbounds i32, ptr %2, i64 %19
  %56 = load i32, ptr %55, align 4
  %57 = getelementptr inbounds i32, ptr %2, i64 %24
  %58 = load i32, ptr %57, align 4
  %59 = icmp ult i32 %56, %58
  br i1 %59, label %compare_index.exit.thread, label %60

60:                                               ; preds = %54
  %61 = icmp ugt i32 %56, %58
  br i1 %61, label %.lr.ph.preheader, label %62

62:                                               ; preds = %60
  %63 = add nsw i32 %.05881.i, 1
  %.not.i = icmp slt i32 %63, %1
  %spec.store.select.i = select i1 %.not.i, i32 %63, i32 0
  %64 = add nsw i32 %.06080.i, 1
  %.not73.i = icmp slt i32 %64, %1
  %spec.store.select2.i = select i1 %.not73.i, i32 %64, i32 0
  br label %65

65:                                               ; preds = %62, %._crit_edge.i
  %.163.i = phi i32 [ %53, %._crit_edge.i ], [ %.06279.i, %62 ]
  %.161.i = phi i32 [ %51, %._crit_edge.i ], [ %spec.store.select2.i, %62 ]
  %.1.i = phi i32 [ %49, %._crit_edge.i ], [ %spec.store.select.i, %62 ]
  %66 = add nsw i32 %.163.i, 1
  %67 = icmp slt i32 %66, %1
  br i1 %67, label %.lr.ph83.i, label %compare_index.exit.thread, !llvm.loop !6

.lr.ph.preheader:                                 ; preds = %60, %46
  %smax = tail call i32 @llvm.smax.i32(i32 %8, i32 1)
  %wide.trip.count = zext nneg i32 %smax to i64
  br label %.lr.ph

.lr.ph:                                           ; preds = %.lr.ph.preheader, %139
  %indvars.iv = phi i64 [ 0, %.lr.ph.preheader ], [ %indvars.iv.next, %139 ]
  %.0104 = phi i32 [ %12, %.lr.ph.preheader ], [ %.1, %139 ]
  %.068102 = phi i32 [ %3, %.lr.ph.preheader ], [ %.169, %139 ]
  %68 = icmp eq i32 %.068102, %12
  br i1 %68, label %69, label %75

69:                                               ; preds = %.lr.ph
  %70 = sext i32 %.0104 to i64
  %71 = getelementptr inbounds i32, ptr %0, i64 %70
  %72 = load i32, ptr %71, align 4
  %73 = getelementptr inbounds i32, ptr %6, i64 %indvars.iv
  store i32 %72, ptr %73, align 4
  %74 = add nsw i32 %.0104, 1
  br label %139

75:                                               ; preds = %.lr.ph
  %76 = icmp eq i32 %.0104, %4
  %77 = sext i32 %.068102 to i64
  %78 = getelementptr inbounds i32, ptr %0, i64 %77
  %79 = load i32, ptr %78, align 4
  br i1 %76, label %80, label %.lr.ph83.i73.preheader

80:                                               ; preds = %75
  %81 = getelementptr inbounds i32, ptr %6, i64 %indvars.iv
  store i32 %79, ptr %81, align 4
  %82 = add nsw i32 %.068102, 1
  br label %139

.lr.ph83.i73.preheader:                           ; preds = %75
  %83 = sext i32 %.0104 to i64
  %84 = getelementptr inbounds i32, ptr %0, i64 %83
  %85 = load i32, ptr %84, align 4
  br label %.lr.ph83.i73

.lr.ph83.i73:                                     ; preds = %.lr.ph83.i73.preheader, %132
  %.05881.i74 = phi i32 [ %.1.i84, %132 ], [ %79, %.lr.ph83.i73.preheader ]
  %.06080.i75 = phi i32 [ %.161.i83, %132 ], [ %85, %.lr.ph83.i73.preheader ]
  %.06279.i76 = phi i32 [ %133, %132 ], [ 0, %.lr.ph83.i73.preheader ]
  %86 = sext i32 %.05881.i74 to i64
  %87 = getelementptr inbounds i32, ptr %5, i64 %86
  %88 = load i32, ptr %87, align 4
  %89 = lshr i32 %88, 8
  %90 = and i32 %88, 255
  %91 = sext i32 %.06080.i75 to i64
  %92 = getelementptr inbounds i32, ptr %5, i64 %91
  %93 = load i32, ptr %92, align 4
  %94 = lshr i32 %93, 8
  %95 = icmp ugt i32 %88, 511
  %96 = icmp ugt i32 %93, 511
  %97 = and i32 %93, 255
  %98 = icmp eq i32 %90, %97
  %99 = and i1 %96, %98
  %or.cond75.i77 = select i1 %95, i1 %99, i1 false
  br i1 %or.cond75.i77, label %.preheader.i85, label %121

.preheader.i85:                                   ; preds = %.lr.ph83.i73
  %.not88.i86 = icmp eq i32 %90, 0
  br i1 %.not88.i86, label %._crit_edge.i90, label %.lr.ph.i87

100:                                              ; preds = %113
  %101 = add nuw nsw i32 %.06478.i88, 1
  %exitcond.not.i89 = icmp eq i32 %101, %90
  br i1 %exitcond.not.i89, label %._crit_edge.i90, label %.lr.ph.i87, !llvm.loop !4

.lr.ph.i87:                                       ; preds = %.preheader.i85, %100
  %.06478.i88 = phi i32 [ %101, %100 ], [ 0, %.preheader.i85 ]
  %102 = add nsw i32 %.06478.i88, %.05881.i74
  %103 = srem i32 %102, %1
  %104 = sext i32 %103 to i64
  %105 = getelementptr inbounds i32, ptr %2, i64 %104
  %106 = load i32, ptr %105, align 4
  %107 = add nsw i32 %.06478.i88, %.06080.i75
  %108 = srem i32 %107, %1
  %109 = sext i32 %108 to i64
  %110 = getelementptr inbounds i32, ptr %2, i64 %109
  %111 = load i32, ptr %110, align 4
  %112 = icmp ult i32 %106, %111
  br i1 %112, label %.loopexit, label %113

113:                                              ; preds = %.lr.ph.i87
  %114 = icmp ugt i32 %106, %111
  br i1 %114, label %compare_index.exit92, label %100

._crit_edge.i90:                                  ; preds = %100, %.preheader.i85
  %spec.select.i91 = tail call i32 @llvm.umin.i32(i32 %94, i32 %89)
  %115 = add nsw i32 %spec.select.i91, %.05881.i74
  %116 = srem i32 %115, %1
  %117 = add nsw i32 %spec.select.i91, %.06080.i75
  %118 = srem i32 %117, %1
  %119 = add nsw i32 %.06279.i76, -1
  %120 = add i32 %119, %spec.select.i91
  br label %132

121:                                              ; preds = %.lr.ph83.i73
  %122 = getelementptr inbounds i32, ptr %2, i64 %86
  %123 = load i32, ptr %122, align 4
  %124 = getelementptr inbounds i32, ptr %2, i64 %91
  %125 = load i32, ptr %124, align 4
  %126 = icmp ult i32 %123, %125
  br i1 %126, label %.loopexit, label %127

127:                                              ; preds = %121
  %128 = icmp ugt i32 %123, %125
  br i1 %128, label %compare_index.exit92, label %129

129:                                              ; preds = %127
  %130 = add nsw i32 %.05881.i74, 1
  %.not.i78 = icmp slt i32 %130, %1
  %spec.store.select.i79 = select i1 %.not.i78, i32 %130, i32 0
  %131 = add nsw i32 %.06080.i75, 1
  %.not73.i80 = icmp slt i32 %131, %1
  %spec.store.select2.i81 = select i1 %.not73.i80, i32 %131, i32 0
  br label %132

132:                                              ; preds = %129, %._crit_edge.i90
  %.163.i82 = phi i32 [ %120, %._crit_edge.i90 ], [ %.06279.i76, %129 ]
  %.161.i83 = phi i32 [ %118, %._crit_edge.i90 ], [ %spec.store.select2.i81, %129 ]
  %.1.i84 = phi i32 [ %116, %._crit_edge.i90 ], [ %spec.store.select.i79, %129 ]
  %133 = add nsw i32 %.163.i82, 1
  %134 = icmp slt i32 %133, %1
  br i1 %134, label %.lr.ph83.i73, label %.loopexit, !llvm.loop !6

compare_index.exit92:                             ; preds = %127, %113
  %135 = getelementptr inbounds i32, ptr %6, i64 %indvars.iv
  store i32 %85, ptr %135, align 4
  %136 = add nsw i32 %.0104, 1
  br label %139

.loopexit:                                        ; preds = %121, %132, %.lr.ph.i87
  %137 = getelementptr inbounds i32, ptr %6, i64 %indvars.iv
  store i32 %79, ptr %137, align 4
  %138 = add nsw i32 %.068102, 1
  br label %139

139:                                              ; preds = %69, %compare_index.exit92, %.loopexit, %80
  %.169 = phi i32 [ %12, %69 ], [ %82, %80 ], [ %.068102, %compare_index.exit92 ], [ %138, %.loopexit ]
  %.1 = phi i32 [ %74, %69 ], [ %4, %80 ], [ %136, %compare_index.exit92 ], [ %.0104, %.loopexit ]
  %indvars.iv.next = add nuw nsw i64 %indvars.iv, 1
  %exitcond.not = icmp eq i64 %indvars.iv.next, %wide.trip.count
  br i1 %exitcond.not, label %._crit_edge, label %.lr.ph, !llvm.loop !7

._crit_edge:                                      ; preds = %139
  %140 = sext i32 %3 to i64
  %141 = getelementptr inbounds i32, ptr %0, i64 %140
  %142 = zext nneg i32 %8 to i64
  %143 = shl nuw nsw i64 %142, 2
  tail call void @llvm.memcpy.p0.p0.i64(ptr align 4 %141, ptr nonnull align 4 %6, i64 %143, i1 false)
  br label %compare_index.exit.thread

compare_index.exit.thread:                        ; preds = %65, %54, %.lr.ph.i, %10, %._crit_edge, %7
  ret void
}